; ModuleID = '41/970.cpp'
source_filename = "41/970.cpp"
target datalayout = "e-m:e-p270:32:32-p271:32:32-p272:64:64-i64:64-f80:128-n8:16:32:64-S128"
target triple = "x86_64-pc-linux-gnu"

%"class.std::ios_base::Init" = type { i8 }
%"class.std::basic_ostream" = type { i32 (...)**, %"class.std::basic_ios" }
%"class.std::basic_ios" = type { %"class.std::ios_base", %"class.std::basic_ostream"*, i8, i8, %"class.std::basic_streambuf"*, %"class.std::ctype"*, %"class.std::num_put"*, %"class.std::num_get"* }
%"class.std::ios_base" = type { i32 (...)**, i64, i64, i32, i32, i32, %"struct.std::ios_base::_Callback_list"*, %"struct.std::ios_base::_Words", [8 x %"struct.std::ios_base::_Words"], i32, %"struct.std::ios_base::_Words"*, %"class.std::locale" }
%"struct.std::ios_base::_Callback_list" = type { %"struct.std::ios_base::_Callback_list"*, void (i32, %"class.std::ios_base"*, i32)*, i32, i32 }
%"struct.std::ios_base::_Words" = type { i8*, i64 }
%"class.std::locale" = type { %"class.std::locale::_Impl"* }
%"class.std::locale::_Impl" = type { i32, %"class.std::locale::facet"**, i64, %"class.std::locale::facet"**, i8** }
%"class.std::locale::facet" = type <{ i32 (...)**, i32, [4 x i8] }>
%"class.std::basic_streambuf" = type { i32 (...)**, i8*, i8*, i8*, i8*, i8*, i8*, %"class.std::locale" }
%"class.std::ctype" = type <{ %"class.std::locale::facet.base", [4 x i8], %struct.__locale_struct*, i8, [7 x i8], i32*, i32*, i16*, i8, [256 x i8], [256 x i8], i8, [6 x i8] }>
%"class.std::locale::facet.base" = type <{ i32 (...)**, i32 }>
%struct.__locale_struct = type { [13 x %struct.__locale_data*], i16*, i32*, i32*, [13 x i8*] }
%struct.__locale_data = type opaque
%"class.std::num_put" = type { %"class.std::locale::facet.base", [4 x i8] }
%"class.std::num_get" = type { %"class.std::locale::facet.base", [4 x i8] }

@_ZStL8__ioinit = internal global %"class.std::ios_base::Init" zeroinitializer, align 1
@__dso_handle = external hidden global i8
@_ZSt4cout = external dso_local global %"class.std::basic_ostream", align 8
@.str = private unnamed_addr constant [2 x i8] c" \00", align 1
@llvm.global_ctors = appending global [1 x { i32, void ()*, i8* }] [{ i32, void ()*, i8* } { i32 65535, void ()* @_GLOBAL__sub_I_970.cpp, i8* null }]

; Function Attrs: noinline uwtable
define internal void @__cxx_global_var_init() #0 section ".text.startup" {
  call void @_ZNSt8ios_base4InitC1Ev(%"class.std::ios_base::Init"* @_ZStL8__ioinit)
  %1 = call i32 @__cxa_atexit(void (i8*)* bitcast (void (%"class.std::ios_base::Init"*)* @_ZNSt8ios_base4InitD1Ev to void (i8*)*), i8* getelementptr inbounds (%"class.std::ios_base::Init", %"class.std::ios_base::Init"* @_ZStL8__ioinit, i32 0, i32 0), i8* @__dso_handle) #3
  ret void
}

declare dso_local void @_ZNSt8ios_base4InitC1Ev(%"class.std::ios_base::Init"*) unnamed_addr #1

; Function Attrs: nounwind
declare dso_local void @_ZNSt8ios_base4InitD1Ev(%"class.std::ios_base::Init"*) unnamed_addr #2

; Function Attrs: nounwind
declare dso_local i32 @__cxa_atexit(void (i8*)*, i8*, i8*) #3

; Function Attrs: noinline norecurse uwtable
define dso_local i32 @main() #4 {
  %1 = alloca i32, align 4
  %2 = alloca i32, align 4
  %3 = alloca i32, align 4
  %4 = alloca i32, align 4
  %5 = alloca i32, align 4
  %6 = alloca i32, align 4
  store i32 0, i32* %1, align 4
  store i32 1, i32* %2, align 4
  br label %7

7:                                                ; preds = %155, %0
  %8 = load i32, i32* %2, align 4
  %9 = icmp sle i32 %8, 5
  br i1 %9, label %10, label %158

10:                                               ; preds = %7
  store i32 1, i32* %3, align 4
  br label %11

11:                                               ; preds = %151, %10
  %12 = load i32, i32* %3, align 4
  %13 = icmp sle i32 %12, 5
  br i1 %13, label %14, label %154

14:                                               ; preds = %11
  store i32 1, i32* %4, align 4
  br label %15

15:                                               ; preds = %147, %14
  %16 = load i32, i32* %4, align 4
  %17 = icmp sle i32 %16, 5
  br i1 %17, label %18, label %150

18:                                               ; preds = %15
  store i32 1, i32* %5, align 4
  br label %19

19:                                               ; preds = %143, %18
  %20 = load i32, i32* %5, align 4
  %21 = icmp sle i32 %20, 5
  br i1 %21, label %22, label %146

22:                                               ; preds = %19
  store i32 1, i32* %6, align 4
  br label %23

23:                                               ; preds = %139, %22
  %24 = load i32, i32* %6, align 4
  %25 = icmp sle i32 %24, 5
  br i1 %25, label %26, label %142

26:                                               ; preds = %23
  %27 = load i32, i32* %2, align 4
  %28 = load i32, i32* %3, align 4
  %29 = icmp ne i32 %27, %28
  br i1 %29, label %30, label %138

30:                                               ; preds = %26
  %31 = load i32, i32* %2, align 4
  %32 = load i32, i32* %4, align 4
  %33 = icmp ne i32 %31, %32
  br i1 %33, label %34, label %138

34:                                               ; preds = %30
  %35 = load i32, i32* %2, align 4
  %36 = load i32, i32* %5, align 4
  %37 = icmp ne i32 %35, %36
  br i1 %37, label %38, label %138

38:                                               ; preds = %34
  %39 = load i32, i32* %2, align 4
  %40 = load i32, i32* %6, align 4
  %41 = icmp ne i32 %39, %40
  br i1 %41, label %42, label %138

42:                                               ; preds = %38
  %43 = load i32, i32* %3, align 4
  %44 = load i32, i32* %4, align 4
  %45 = icmp ne i32 %43, %44
  br i1 %45, label %46, label %138

46:                                               ; preds = %42
  %47 = load i32, i32* %3, align 4
  %48 = load i32, i32* %5, align 4
  %49 = icmp ne i32 %47, %48
  br i1 %49, label %50, label %138

50:                                               ; preds = %46
  %51 = load i32, i32* %3, align 4
  %52 = load i32, i32* %6, align 4
  %53 = icmp ne i32 %51, %52
  br i1 %53, label %54, label %138

54:                                               ; preds = %50
  %55 = load i32, i32* %4, align 4
  %56 = load i32, i32* %5, align 4
  %57 = icmp ne i32 %55, %56
  br i1 %57, label %58, label %138

58:                                               ; preds = %54
  %59 = load i32, i32* %4, align 4
  %60 = load i32, i32* %6, align 4
  %61 = icmp ne i32 %59, %60
  br i1 %61, label %62, label %138

62:                                               ; preds = %58
  %63 = load i32, i32* %5, align 4
  %64 = load i32, i32* %6, align 4
  %65 = icmp ne i32 %63, %64
  br i1 %65, label %66, label %138

66:                                               ; preds = %62
  %67 = load i32, i32* %6, align 4
  %68 = icmp eq i32 %67, 1
  br i1 %68, label %69, label %77

69:                                               ; preds = %66
  %70 = load i32, i32* %2, align 4
  %71 = icmp eq i32 %70, 1
  br i1 %71, label %75, label %72

72:                                               ; preds = %69
  %73 = load i32, i32* %2, align 4
  %74 = icmp eq i32 %73, 2
  br label %75

75:                                               ; preds = %72, %69
  %76 = phi i1 [ true, %69 ], [ %74, %72 ]
  br label %77

77:                                               ; preds = %75, %66
  %78 = phi i1 [ false, %66 ], [ %76, %75 ]
  %79 = zext i1 %78 to i32
  %80 = load i32, i32* %3, align 4
  %81 = icmp eq i32 %80, 2
  br i1 %81, label %82, label %90

82:                                               ; preds = %77
  %83 = load i32, i32* %3, align 4
  %84 = icmp eq i32 %83, 1
  br i1 %84, label %88, label %85

85:                                               ; preds = %82
  %86 = load i32, i32* %3, align 4
  %87 = icmp eq i32 %86, 2
  br label %88

88:                                               ; preds = %85, %82
  %89 = phi i1 [ true, %82 ], [ %87, %85 ]
  br label %90

90:                                               ; preds = %88, %77
  %91 = phi i1 [ false, %77 ], [ %89, %88 ]
  %92 = zext i1 %91 to i32
  %93 = add nsw i32 %79, %92
  %94 = load i32, i32* %2, align 4
  %95 = icmp eq i32 %94, 5
  br i1 %95, label %96, label %104

96:                                               ; preds = %90
  %97 = load i32, i32* %4, align 4
  %98 = icmp eq i32 %97, 1
  br i1 %98, label %102, label %99

99:                                               ; preds = %96
  %100 = load i32, i32* %4, align 4
  %101 = icmp eq i32 %100, 2
  br label %102

102:                                              ; preds = %99, %96
  %103 = phi i1 [ true, %96 ], [ %101, %99 ]
  br label %104

104:                                              ; preds = %102, %90
  %105 = phi i1 [ false, %90 ], [ %103, %102 ]
  %106 = zext i1 %105 to i32
  %107 = add nsw i32 %93, %106
  %108 = load i32, i32* %4, align 4
  %109 = icmp ne i32 %108, 1
  br i1 %109, label %110, label %118

110:                                              ; preds = %104
  %111 = load i32, i32* %5, align 4
  %112 = icmp eq i32 %111, 1
  br i1 %112, label %116, label %113

113:                                              ; preds = %110
  %114 = load i32, i32* %5, align 4
  %115 = icmp eq i32 %114, 2
  br label %116

116:                                              ; preds = %113, %110
  %117 = phi i1 [ true, %110 ], [ %115, %113 ]
  br label %118

118:                                              ; preds = %116, %104
  %119 = phi i1 [ false, %104 ], [ %117, %116 ]
  %120 = zext i1 %119 to i32
  %121 = add nsw i32 %107, %120
  %122 = load i32, i32* %5, align 4
  %123 = icmp eq i32 %122, 1
  br i1 %123, label %124, label %132

124:                                              ; preds = %118
  %125 = load i32, i32* %6, align 4
  %126 = icmp eq i32 %125, 1
  br i1 %126, label %130, label %127

127:                                              ; preds = %124
  %128 = load i32, i32* %6, align 4
  %129 = icmp eq i32 %128, 2
  br label %130

130:                                              ; preds = %127, %124
  %131 = phi i1 [ true, %124 ], [ %129, %127 ]
  br label %132

132:                                              ; preds = %130, %118
  %133 = phi i1 [ false, %118 ], [ %131, %130 ]
  %134 = zext i1 %133 to i32
  %135 = add nsw i32 %121, %134
  %136 = icmp eq i32 %135, 2
  br i1 %136, label %137, label %138

137:                                              ; preds = %132
  br label %142

138:                                              ; preds = %132, %62, %58, %54, %50, %46, %42, %38, %34, %30, %26
  br label %139

139:                                              ; preds = %138
  %140 = load i32, i32* %6, align 4
  %141 = add nsw i32 %140, 1
  store i32 %141, i32* %6, align 4
  br label %23

142:                                              ; preds = %137, %23
  br label %143

143:                                              ; preds = %142
  %144 = load i32, i32* %5, align 4
  %145 = add nsw i32 %144, 1
  store i32 %145, i32* %5, align 4
  br label %19

146:                                              ; preds = %19
  br label %147

147:                                              ; preds = %146
  %148 = load i32, i32* %4, align 4
  %149 = add nsw i32 %148, 1
  store i32 %149, i32* %4, align 4
  br label %15

150:                                              ; preds = %15
  br label %151

151:                                              ; preds = %150
  %152 = load i32, i32* %3, align 4
  %153 = add nsw i32 %152, 1
  store i32 %153, i32* %3, align 4
  br label %11

154:                                              ; preds = %11
  br label %155

155:                                              ; preds = %154
  %156 = load i32, i32* %2, align 4
  %157 = add nsw i32 %156, 1
  store i32 %157, i32* %2, align 4
  br label %7

158:                                              ; preds = %7
  %159 = call dereferenceable(272) %"class.std::basic_ostream"* @_ZNSolsEi(%"class.std::basic_ostream"* @_ZSt4cout, i32 5)
  %160 = call dereferenceable(272) %"class.std::basic_ostream"* @_ZStlsISt11char_traitsIcEERSt13basic_ostreamIcT_ES5_PKc(%"class.std::basic_ostream"* dereferenceable(272) %159, i8* getelementptr inbounds ([2 x i8], [2 x i8]* @.str, i64 0, i64 0))
  %161 = call dereferenceable(272) %"class.std::basic_ostream"* @_ZNSolsEi(%"class.std::basic_ostream"* %160, i32 2)
  %162 = call dereferenceable(272) %"class.std::basic_ostream"* @_ZStlsISt11char_traitsIcEERSt13basic_ostreamIcT_ES5_PKc(%"class.std::basic_ostream"* dereferenceable(272) %161, i8* getelementptr inbounds ([2 x i8], [2 x i8]* @.str, i64 0, i64 0))
  %163 = call dereferenceable(272) %"class.std::basic_ostream"* @_ZNSolsEi(%"class.std::basic_ostream"* %162, i32 1)
  %164 = call dereferenceable(272) %"class.std::basic_ostream"* @_ZStlsISt11char_traitsIcEERSt13basic_ostreamIcT_ES5_PKc(%"class.std::basic_ostream"* dereferenceable(272) %163, i8* getelementptr inbounds ([2 x i8], [2 x i8]* @.str, i64 0, i64 0))
  %165 = call dereferenceable(272) %"class.std::basic_ostream"* @_ZNSolsEi(%"class.std::basic_ostream"* %164, i32 3)
  %166 = call dereferenceable(272) %"class.std::basic_ostream"* @_ZStlsISt11char_traitsIcEERSt13basic_ostreamIcT_ES5_PKc(%"class.std::basic_ostream"* dereferenceable(272) %165, i8* getelementptr inbounds ([2 x i8], [2 x i8]* @.str, i64 0, i64 0))
  %167 = call dereferenceable(272) %"class.std::basic_ostream"* @_ZNSolsEi(%"class.std::basic_ostream"* %166, i32 4)
  %168 = call dereferenceable(272) %"class.std::basic_ostream"* @_ZNSolsEPFRSoS_E(%"class.std::basic_ostream"* %167, %"class.std::basic_ostream"* (%"class.std::basic_ostream"*)* @_ZSt4endlIcSt11char_traitsIcEERSt13basic_ostreamIT_T0_ES6_)
  ret i32 0
}

declare dso_local dereferenceable(272) %"class.std::basic_ostream"* @_ZStlsISt11char_traitsIcEERSt13basic_ostreamIcT_ES5_PKc(%"class.std::basic_ostream"* dereferenceable(272), i8*) #1

declare dso_local dereferenceable(272) %"class.std::basic_ostream"* @_ZNSolsEi(%"class.std::basic_ostream"*, i32) #1

declare dso_local dereferenceable(272) %"class.std::basic_ostream"* @_ZNSolsEPFRSoS_E(%"class.std::basic_ostream"*, %"class.std::basic_ostream"* (%"class.std::basic_ostream"*)*) #1

declare dso_local dereferenceable(272) %"class.std::basic_ostream"* @_ZSt4endlIcSt11char_traitsIcEERSt13basic_ostreamIT_T0_ES6_(%"class.std::basic_ostream"* dereferenceable(272)) #1

; Function Attrs: noinline uwtable
define internal void @_GLOBAL__sub_I_970.cpp() #0 section ".text.startup" {
  call void @__cxx_global_var_init()
  ret void
}


!llvm.module.flags = !{!0}
!llvm.ident = !{!1}

!0 = !{i32 1, !"wchar_size", i32 4}
!1 = !{!"clang version 10.0.0-4ubuntu1 "}
